; Function Attrs: mustprogress nofree norecurse nosync nounwind willreturn memory(argmem: read) uwtable
define dso_local nonnull ptr @get_revision_mark(ptr noundef readonly %0, ptr noundef readonly captures(none) %1) local_unnamed_addr #18 {
  %3 = load i32, ptr %1, align 8
  %4 = and i32 %3, 512
  %.not = icmp eq i32 %4, 0
  br i1 %.not, label %5, label %21

5:                                                ; preds = %2
  %6 = and i32 %3, 32
  %.not10 = icmp eq i32 %6, 0
  br i1 %.not10, label %7, label %21

7:                                                ; preds = %5
  %8 = and i32 %3, 8192
  %.not11 = icmp eq i32 %8, 0
  br i1 %.not11, label %9, label %21

9:                                                ; preds = %7
  %.not12 = icmp eq ptr %0, null
  br i1 %.not12, label %14, label %10

10:                                               ; preds = %9
  %11 = getelementptr inbounds nuw i8, ptr %0, i64 288
  %12 = load i64, ptr %11, align 8
  %13 = and i64 %12, 33554432
  %.not13 = icmp eq i64 %13, 0
  br i1 %.not13, label %16, label %14

14:                                               ; preds = %10, %9
  %15 = and i32 %3, 4096
  %.not16 = icmp eq i32 %15, 0
  %.str.33..str.32 = select i1 %.not16, ptr @.str.33, ptr @.str.32
  br label %21

16:                                               ; preds = %10
  %17 = getelementptr inbounds nuw i8, ptr %0, i64 1400
  %18 = load ptr, ptr %17, align 8, !tbaa !227
  %.not14 = icmp eq ptr %18, null
  br i1 %.not14, label %19, label %21

19:                                               ; preds = %16
  %20 = and i64 %12, 17179869184
  %.not15 = icmp eq i64 %20, 0
  %.str.36..str.35 = select i1 %.not15, ptr @.str.36, ptr @.str.35
  br label %21

21:                                               ; preds = %19, %16, %14, %7, %5, %2
  %.0 = phi ptr [ @.str.29, %2 ], [ @.str.30, %5 ], [ @.str.31, %7 ], [ %.str.33..str.32, %14 ], [ @.str.34, %16 ], [ %.str.36..str.35, %19 ]
  ret ptr %.0
}